(dp0
S'solidPlatform'
p1
(lp2
(lp3
(I0
I544
tp4
aa(lp5
(I96
I544
tp6
aa(lp7
(I192
I544
tp8
aa(lp9
(I288
I544
tp10
aa(lp11
(I384
I544
tp12
aa(lp13
(I480
I544
tp14
aa(lp15
(I576
I544
tp16
aa(lp17
(I672
I544
tp18
aa(lp19
(I768
I544
tp20
aa(lp21
(I864
I544
tp22
aa(lp23
(I960
I544
tp24
aasS'MainChar'
p25
(lp26
(lp27
(I512
I160
tp28
aas.