(dp0
S'badGuy'
p1
(lp2
(lp3
(I448
I128
tp4
aasS'solidPlatform'
p5
(lp6
(lp7
(I32
I704
tp8
aa(lp9
(I672
I704
tp10
aa(lp11
(I864
I704
tp12
aa(lp13
(I256
I704
tp14
aa(lp15
(I480
I704
tp16
aa(lp17
(I384
I704
tp18
aa(lp19
(I192
I704
tp20
aa(lp21
(I608
I704
tp22
aa(lp23
(I832
I704
tp24
aa(lp25
(I992
I704
tp26
aas.