(dp0
S'solidPlatform'
p1
(lp2
(lp3
(I640
I448
tp4
aa(lp5
(I640
I448
tp6
aa(lp7
(I640
I448
tp8
aa(lp9
(I640
I448
tp10
aa(lp11
(I640
I448
tp12
aa(lp13
(I640
I448
tp14
aa(lp15
(I640
I448
tp16
aa(lp17
(I640
I448
tp18
aa(lp19
(I640
I448
tp20
aasS'MainChar'
p21
(lp22
(lp23
(I544
I128
tp24
aas.