(dp0
S'platforms'
p1
(lp2
(I0
I704
tp3
a(I96
I704
tp4
a(I192
I704
tp5
a(I288
I704
tp6
a(I384
I704
tp7
a(I480
I704
tp8
a(I576
I704
tp9
a(I672
I704
tp10
a(I768
I704
tp11
a(I864
I704
tp12
a(I960
I704
tp13
a(I128
I544
tp14
a(I768
I544
tp15
a(I448
I384
tp16
asS'badguys'
p17
(lp18
sS'balls'
p19
(lp20
sS'walls'
p21
(lp22
(I416
I640
tp23
a(I576
I640
tp24
asS'mainchar'
p25
(lp26
(I480
I256
tp27
as.