(dp0
S'solidPlatform'
p1
(lp2
(lp3
(I0
I736
tp4
aa(lp5
(I96
I736
tp6
aa(lp7
(I928
I736
tp8
aa(lp9
(I832
I736
tp10
aa(lp11
(I352
I384
tp12
aa(lp13
(I448
I384
tp14
aa(lp15
(I544
I384
tp16
aasS'MainChar'
p17
(lp18
(lp19
(I480
I192
tp20
aas.