(dp0
S'platforms'
p1
(lp2
(I0
I736
tp3
a(I448
I736
tp4
a(I224
I736
tp5
a(I672
I736
tp6
a(I928
I736
tp7
asS'badguys'
p8
(lp9
(I160
I288
tp10
asS'balls'
p11
(lp12
(I672
I320
tp13
asS'walls'
p14
(lp15
sS'mainchar'
p16
(lp17
(I448
I160
tp18
as.