(dp0
S'platforms'
p1
(lp2
(I896
I160
tp3
a(I800
I160
tp4
a(I704
I160
tp5
a(I608
I160
tp6
a(I512
I160
tp7
a(I512
I160
tp8
a(I416
I160
tp9
a(I224
I160
tp10
a(I128
I160
tp11
a(I32
I160
tp12
a(I0
I160
tp13
a(I32
I0
tp14
a(I128
I0
tp15
a(I224
I0
tp16
a(I320
I0
tp17
a(I416
I0
tp18
a(I512
I0
tp19
a(I608
I0
tp20
a(I704
I0
tp21
a(I800
I0
tp22
a(I896
I0
tp23
a(I96
I736
tp24
a(I192
I736
tp25
a(I288
I736
tp26
a(I384
I736
tp27
a(I480
I736
tp28
a(I576
I736
tp29
a(I672
I736
tp30
a(I768
I736
tp31
a(I864
I736
tp32
a(I928
I736
tp33
asS'badguys'
p34
(lp35
(I864
I32
tp36
asS'balls'
p37
(lp38
(I96
I224
tp39
a(I672
I64
tp40
a(I384
I64
tp41
a(I768
I288
tp42
a(I416
I576
tp43
asS'walls'
p44
(lp45
(I992
I0
tp46
a(I992
I64
tp47
a(I992
I128
tp48
a(I0
I128
tp49
a(I0
I64
tp50
a(I0
I0
tp51
a(I0
I192
tp52
a(I0
I256
tp53
a(I0
I320
tp54
a(I0
I384
tp55
a(I0
I448
tp56
a(I0
I512
tp57
a(I0
I576
tp58
a(I0
I640
tp59
a(I0
I704
tp60
asS'mainchar'
p61
(lp62
(I96
I32
tp63
as.