(dp0
S'platforms'
p1
(lp2
(I0
I576
tp3
a(I192
I576
tp4
a(I384
I576
tp5
a(I576
I576
tp6
a(I768
I576
tp7
a(I96
I576
tp8
a(I288
I576
tp9
a(I480
I576
tp10
a(I672
I576
tp11
a(I864
I576
tp12
a(I960
I576
tp13
a(I288
I704
tp14
a(I384
I704
tp15
asS'badguys'
p16
(lp17
(I224
I192
tp18
asS'balls'
p19
(lp20
(I480
I192
tp21
a(I320
I640
tp22
asS'walls'
p23
(lp24
(I256
I608
tp25
a(I256
I672
tp26
a(I448
I640
tp27
a(I448
I608
tp28
asS'mainchar'
p29
(lp30
(I704
I192
tp31
as.