(dp0
S'badGuy'
p1
(lp2
(lp3
(I96
I320
tp4
aa(lp5
(I800
I448
tp6
aasS'solidPlatform'
p7
(lp8
(lp9
(I0
I736
tp10
aa(lp11
(I96
I736
tp12
aa(lp13
(I224
I736
tp14
aa(lp15
(I352
I736
tp16
aa(lp17
(I480
I736
tp18
aa(lp19
(I608
I736
tp20
aa(lp21
(I736
I736
tp22
aa(lp23
(I864
I736
tp24
aa(lp25
(I928
I736
tp26
aasS'MainChar'
p27
(lp28
(lp29
(I384
I96
tp30
aas.