(dp0
S'badGuy'
p1
(lp2
(lp3
(I576
I256
tp4
aa(lp5
(I672
I192
tp6
aa(lp7
(I160
I192
tp8
aa(lp9
(I64
I128
tp10
aa(lp11
(I96
I288
tp12
aasS'solidPlatform'
p13
(lp14
(lp15
(I32
I704
tp16
aa(lp17
(I320
I672
tp18
aa(lp19
(I608
I672
tp20
aa(lp21
(I768
I672
tp22
aa(lp23
(I864
I672
tp24
aa(lp25
(I864
I704
tp26
aa(lp27
(I544
I672
tp28
aa(lp29
(I480
I672
tp30
aa(lp31
(I288
I640
tp32
aa(lp33
(I192
I640
tp34
aa(lp35
(I32
I608
tp36
aa(lp37
(I0
I608
tp38
aasS'MainChar'
p39
(lp40
(lp41
(I448
I96
tp42
aas.