(dp0
S'platforms'
p1
(lp2
(I32
I736
tp3
a(I128
I736
tp4
a(I224
I736
tp5
a(I320
I736
tp6
a(I416
I736
tp7
a(I512
I736
tp8
a(I608
I736
tp9
a(I704
I736
tp10
a(I800
I736
tp11
a(I896
I736
tp12
a(I928
I736
tp13
a(I928
I672
tp14
asS'badguys'
p15
(lp16
sS'balls'
p17
(lp18
sS'walls'
p19
(lp20
sS'mainchar'
p21
(lp22
(I480
I288
tp23
as.