(dp0
S'platforms'
p1
(lp2
(I32
I0
tp3
a(I128
I0
tp4
a(I224
I0
tp5
a(I320
I0
tp6
a(I416
I0
tp7
a(I512
I0
tp8
a(I608
I0
tp9
a(I704
I0
tp10
a(I800
I0
tp11
a(I896
I0
tp12
a(I896
I224
tp13
a(I800
I224
tp14
a(I704
I224
tp15
a(I608
I224
tp16
a(I512
I224
tp17
a(I416
I224
tp18
a(I320
I224
tp19
a(I224
I224
tp20
a(I32
I448
tp21
a(I128
I448
tp22
a(I224
I448
tp23
a(I128
I736
tp24
a(I224
I736
tp25
a(I320
I736
tp26
a(I416
I736
tp27
a(I512
I736
tp28
a(I608
I736
tp29
a(I704
I736
tp30
a(I800
I736
tp31
a(I896
I736
tp32
a(I928
I736
tp33
a(I352
I352
tp34
a(I448
I352
tp35
a(I544
I352
tp36
a(I640
I352
tp37
a(I736
I352
tp38
a(I896
I544
tp39
a(I800
I544
tp40
a(I704
I544
tp41
a(I608
I544
tp42
a(I512
I544
tp43
a(I416
I544
tp44
asS'badguys'
p45
(lp46
sS'balls'
p47
(lp48
sS'walls'
p49
(lp50
(I0
I0
tp51
a(I0
I64
tp52
a(I0
I128
tp53
a(I0
I192
tp54
a(I0
I256
tp55
a(I0
I320
tp56
a(I0
I384
tp57
a(I0
I448
tp58
a(I0
I512
tp59
a(I0
I576
tp60
a(I0
I640
tp61
a(I0
I704
tp62
a(I992
I0
tp63
a(I992
I64
tp64
a(I992
I128
tp65
a(I992
I192
tp66
a(I224
I256
tp67
a(I224
I320
tp68
a(I320
I416
tp69
a(I320
I352
tp70
a(I832
I352
tp71
a(I992
I256
tp72
a(I992
I320
tp73
a(I992
I384
tp74
a(I992
I448
tp75
a(I992
I512
tp76
asS'mainchar'
p77
(lp78
s.