(dp0
S'platforms'
p1
(lp2
(I96
I0
tp3
a(I192
I0
tp4
a(I288
I0
tp5
a(I384
I0
tp6
a(I480
I0
tp7
a(I576
I0
tp8
a(I672
I0
tp9
a(I768
I0
tp10
a(I864
I0
tp11
a(I928
I0
tp12
a(I448
I288
tp13
asS'badguys'
p14
(lp15
(I448
I224
tp16
asS'balls'
p17
(lp18
(I288
I160
tp19
a(I832
I128
tp20
a(I768
I512
tp21
a(I288
I480
tp22
asS'walls'
p23
(lp24
(I0
I0
tp25
a(I0
I64
tp26
a(I0
I160
tp27
a(I0
I128
tp28
a(I0
I224
tp29
a(I0
I288
tp30
a(I0
I352
tp31
a(I0
I416
tp32
a(I0
I480
tp33
a(I0
I544
tp34
a(I0
I608
tp35
a(I0
I672
tp36
a(I0
I704
tp37
asS'mainchar'
p38
(lp39
s.