(dp0
S'solidWall'
p1
(lp2
(lp3
(I0
I0
tp4
aa(lp5
(I0
I64
tp6
aa(lp7
(I0
I160
tp8
aa(lp9
(I0
I224
tp10
aa(lp11
(I0
I288
tp12
aa(lp13
(I0
I352
tp14
aa(lp15
(I0
I128
tp16
aa(lp17
(I0
I416
tp18
aa(lp19
(I0
I480
tp20
aa(lp21
(I0
I544
tp22
aa(lp23
(I0
I608
tp24
aa(lp25
(I0
I672
tp26
aa(lp27
(I0
I704
tp28
aa(lp29
(I992
I384
tp30
aa(lp31
(I992
I448
tp32
aa(lp33
(I992
I512
tp34
aa(lp35
(I992
I576
tp36
aa(lp37
(I992
I640
tp38
aa(lp39
(I992
I704
tp40
aasS'badGuy'
p41
(lp42
(lp43
(I480
I512
tp44
aasS'solidPlatform'
p45
(lp46
(lp47
(I256
I192
tp48
aa(lp49
(I352
I192
tp50
aa(lp51
(I448
I192
tp52
aa(lp53
(I544
I192
tp54
aa(lp55
(I640
I192
tp56
aa(lp57
(I736
I192
tp58
aa(lp59
(I32
I736
tp60
aa(lp61
(I128
I736
tp62
aa(lp63
(I224
I736
tp64
aa(lp65
(I320
I736
tp66
aa(lp67
(I416
I736
tp68
aa(lp69
(I512
I736
tp70
aa(lp71
(I608
I736
tp72
aa(lp73
(I704
I736
tp74
aa(lp75
(I800
I736
tp76
aa(lp77
(I896
I736
tp78
aas.