(dp0
S'badGuy'
p1
(lp2
(lp3
(I32
I640
tp4
aasS'solidPlatform'
p5
(lp6
(lp7
(I0
I736
tp8
aa(lp9
(I96
I736
tp10
aa(lp11
(I192
I736
tp12
aa(lp13
(I288
I736
tp14
aa(lp15
(I384
I736
tp16
aa(lp17
(I480
I736
tp18
aa(lp19
(I576
I736
tp20
aa(lp21
(I672
I736
tp22
aa(lp23
(I768
I736
tp24
aa(lp25
(I864
I736
tp26
aa(lp27
(I960
I736
tp28
aas.