(dp0
S'solidPlatform'
p1
(lp2
(lp3
(I32
I704
tp4
aa(lp5
(I256
I736
tp6
aa(lp7
(I576
I704
tp8
aa(lp9
(I832
I704
tp10
aa(lp11
(I928
I608
tp12
aa(lp13
(I704
I704
tp14
aa(lp15
(I416
I736
tp16
aa(lp17
(I160
I736
tp18
aa(lp19
(I928
I640
tp20
aas.