(dp0
S'platforms'
p1
(lp2
(I0
I736
tp3
a(I96
I736
tp4
a(I192
I736
tp5
a(I320
I704
tp6
a(I288
I736
tp7
a(I0
I672
tp8
asS'badguys'
p9
(lp10
sS'balls'
p11
(lp12
sS'walls'
p13
(lp14
sS'mainchar'
p15
(lp16
s.