(dp0
S'solidWall'
p1
(lp2
(lp3
(I544
I672
tp4
aa(lp5
(I736
I672
tp6
aa(lp7
(I512
I672
tp8
aa(lp9
(I768
I672
tp10
aasS'badGuy'
p11
(lp12
(lp13
(I192
I320
tp14
aa(lp15
(I800
I384
tp16
aasS'solidPlatform'
p17
(lp18
(lp19
(I0
I736
tp20
aa(lp21
(I96
I736
tp22
aa(lp23
(I192
I736
tp24
aa(lp25
(I288
I736
tp26
aa(lp27
(I384
I736
tp28
aa(lp29
(I480
I736
tp30
aa(lp31
(I736
I736
tp32
aa(lp33
(I832
I736
tp34
aa(lp35
(I928
I736
tp36
aas.