(dp0
S'platforms'
p1
(lp2
(I32
I704
tp3
a(I224
I704
tp4
a(I416
I704
tp5
a(I608
I704
tp6
a(I768
I704
tp7
a(I928
I704
tp8
a(I128
I736
tp9
a(I320
I736
tp10
a(I512
I736
tp11
a(I704
I736
tp12
a(I864
I736
tp13
a(I0
I736
tp14
asS'badguys'
p15
(lp16
(I832
I608
tp17
asS'balls'
p18
(lp19
sS'walls'
p20
(lp21
sS'mainchar'
p22
(lp23
s.