(dp0
S'platforms'
p1
(lp2
(I0
I576
tp3
a(I32
I576
tp4
a(I96
I608
tp5
a(I160
I608
tp6
a(I288
I640
tp7
a(I384
I704
tp8
a(I672
I704
tp9
a(I736
I704
tp10
a(I832
I704
tp11
a(I832
I704
tp12
a(I448
I736
tp13
a(I416
I736
tp14
a(I0
I608
tp15
a(I0
I640
tp16
a(I160
I640
tp17
a(I256
I672
tp18
a(I416
I704
tp19
a(I512
I736
tp20
a(I576
I704
tp21
asS'badguys'
p22
(lp23
sS'balls'
p24
(lp25
sS'walls'
p26
(lp27
sS'mainchar'
p28
(lp29
s.