(dp0
S'solidPlatform'
p1
(lp2
(lp3
(I0
I736
tp4
aa(lp5
(I96
I736
tp6
aa(lp7
(I192
I736
tp8
aa(lp9
(I288
I736
tp10
aa(lp11
(I416
I704
tp12
aa(lp13
(I544
I736
tp14
aa(lp15
(I640
I736
tp16
aa(lp17
(I768
I736
tp18
aa(lp19
(I736
I736
tp20
aa(lp21
(I864
I736
tp22
aa(lp23
(I928
I736
tp24
aas.