(dp0
S'badGuy'
p1
(lp2
(lp3
(I448
I160
tp4
aa(lp5
(I448
I160
tp6
aa(lp7
(I448
I160
tp8
aa(lp9
(I448
I160
tp10
aasS'solidPlatform'
p11
(lp12
(lp13
(I640
I256
tp14
aa(lp15
(I640
I256
tp16
aa(lp17
(I640
I256
tp18
aa(lp19
(I640
I256
tp20
aa(lp21
(I640
I256
tp22
aa(lp23
(I640
I256
tp24
aa(lp25
(I640
I256
tp26
aa(lp27
(I640
I256
tp28
aa(lp29
(I640
I256
tp30
aa(lp31
(I640
I256
tp32
aa(lp33
(I640
I256
tp34
aa(lp35
(I640
I256
tp36
aa(lp37
(I448
I192
tp38
aa(lp39
(I448
I160
tp40
aa(lp41
(I288
I384
tp42
aas.