(dp0
S'platforms'
p1
(lp2
(I32
I0
tp3
a(I128
I0
tp4
a(I224
I0
tp5
a(I320
I0
tp6
a(I416
I0
tp7
a(I512
I0
tp8
a(I608
I0
tp9
a(I704
I0
tp10
a(I800
I0
tp11
a(I896
I0
tp12
a(I928
I0
tp13
a(I0
I736
tp14
a(I96
I736
tp15
a(I288
I608
tp16
a(I512
I544
tp17
a(I704
I480
tp18
a(I896
I416
tp19
a(I928
I416
tp20
asS'badguys'
p21
(lp22
(I928
I352
tp23
asS'balls'
p24
(lp25
sS'walls'
p26
(lp27
(I0
I0
tp28
a(I0
I64
tp29
a(I0
I128
tp30
asS'mainchar'
p31
(lp32
s.