(dp0
S'platforms'
p1
(lp2
(I0
I736
tp3
a(I96
I736
tp4
a(I192
I736
tp5
a(I384
I736
tp6
a(I544
I736
tp7
a(I352
I736
tp8
a(I704
I736
tp9
a(I864
I736
tp10
a(I0
I192
tp11
a(I96
I192
tp12
a(I160
I192
tp13
a(I224
I192
tp14
a(I256
I192
tp15
a(I352
I192
tp16
a(I384
I192
tp17
a(I480
I192
tp18
a(I544
I192
tp19
a(I608
I192
tp20
a(I672
I192
tp21
a(I800
I192
tp22
a(I768
I224
tp23
a(I896
I192
tp24
a(I928
I192
tp25
asS'badguys'
p26
(lp27
(I864
I672
tp28
asS'balls'
p29
(lp30
(I192
I256
tp31
a(I704
I480
tp32
a(I800
I256
tp33
a(I128
I512
tp34
asS'walls'
p35
(lp36
sS'mainchar'
p37
(lp38
s.