(dp0
S'solidWall'
p1
(lp2
(lp3
(I0
I640
tp4
aa(lp5
(I0
I576
tp6
aa(lp7
(I0
I512
tp8
aa(lp9
(I0
I448
tp10
aa(lp11
(I0
I384
tp12
aa(lp13
(I0
I320
tp14
aasS'badGuy'
p15
(lp16
(lp17
(I128
I448
tp18
aa(lp19
(I128
I448
tp20
aa(lp21
(I128
I448
tp22
aa(lp23
(I128
I448
tp24
aa(lp25
(I128
I448
tp26
aa(lp27
(I128
I448
tp28
aa(lp29
(I128
I448
tp30
aa(lp31
(I128
I448
tp32
aa(lp33
(I128
I448
tp34
aa(lp35
(I128
I448
tp36
aa(lp37
(I128
I448
tp38
aa(lp39
(I128
I448
tp40
aa(lp41
(I128
I448
tp42
aa(lp43
(I128
I448
tp44
aa(lp45
(I128
I448
tp46
aa(lp47
(I128
I448
tp48
aasS'solidPlatform'
p49
(lp50
(lp51
(I576
I736
tp52
aa(lp53
(I576
I736
tp54
aa(lp55
(I576
I736
tp56
aa(lp57
(I576
I736
tp58
aa(lp59
(I576
I736
tp60
aa(lp61
(I576
I736
tp62
aa(lp63
(I576
I736
tp64
aa(lp65
(I576
I736
tp66
aa(lp67
(I576
I736
tp68
aa(lp69
(I576
I736
tp70
aa(lp71
(I576
I736
tp72
aa(lp73
(I576
I736
tp74
aa(lp75
(I576
I736
tp76
aas.