(dp0
S'solidWall'
p1
(lp2
(lp3
(I0
I320
tp4
aa(lp5
(I0
I320
tp6
aa(lp7
(I0
I320
tp8
aa(lp9
(I0
I320
tp10
aa(lp11
(I0
I320
tp12
aa(lp13
(I0
I320
tp14
aasS'badGuy'
p15
(lp16
(lp17
(I448
I192
tp18
aa(lp19
(I448
I192
tp20
aa(lp21
(I448
I192
tp22
aa(lp23
(I448
I192
tp24
aa(lp25
(I448
I192
tp26
aa(lp27
(I448
I192
tp28
aa(lp29
(I448
I192
tp30
aa(lp31
(I448
I192
tp32
aa(lp33
(I448
I192
tp34
aa(lp35
(I448
I192
tp36
aa(lp37
(I448
I192
tp38
aa(lp39
(I448
I192
tp40
aa(lp41
(I448
I192
tp42
aa(lp43
(I448
I192
tp44
aa(lp45
(I448
I192
tp46
aa(lp47
(I448
I192
tp48
aa(lp49
(I448
I192
tp50
aa(lp51
(I448
I192
tp52
aa(lp53
(I448
I192
tp54
aa(lp55
(I448
I192
tp56
aa(lp57
(I448
I192
tp58
aa(lp59
(I448
I192
tp60
aa(lp61
(I448
I192
tp62
aa(lp63
(I448
I192
tp64
aa(lp65
(I448
I192
tp66
aa(lp67
(I448
I192
tp68
aa(lp69
(I448
I192
tp70
aasS'solidPlatform'
p71
(lp72
(lp73
(I96
I736
tp74
aa(lp75
(I96
I736
tp76
aa(lp77
(I96
I736
tp78
aa(lp79
(I96
I736
tp80
aa(lp81
(I96
I736
tp82
aa(lp83
(I96
I736
tp84
aa(lp85
(I96
I736
tp86
aa(lp87
(I96
I736
tp88
aa(lp89
(I96
I736
tp90
aa(lp91
(I96
I736
tp92
aa(lp93
(I96
I736
tp94
aa(lp95
(I96
I736
tp96
aa(lp97
(I96
I736
tp98
aa(lp99
(I96
I736
tp100
aa(lp101
(I96
I736
tp102
aas.