(dp0
S'platforms'
p1
(lp2
(I832
I672
tp3
a(I672
I672
tp4
a(I512
I672
tp5
a(I352
I672
tp6
a(I192
I672
tp7
a(I64
I672
tp8
a(I672
I224
tp9
a(I768
I224
tp10
a(I864
I224
tp11
a(I832
I32
tp12
a(I736
I32
tp13
a(I640
I32
tp14
asS'badguys'
p15
(lp16
(I192
I96
tp17
asS'balls'
p18
(lp19
(I768
I96
tp20
asS'walls'
p21
(lp22
(I640
I64
tp23
a(I640
I128
tp24
a(I640
I192
tp25
a(I928
I160
tp26
a(I928
I96
tp27
a(I928
I32
tp28
asS'mainchar'
p29
(lp30
s.