(dp0
S'platforms'
p1
(lp2
(I0
I736
tp3
a(I96
I736
tp4
a(I256
I736
tp5
a(I384
I736
tp6
a(I480
I736
tp7
a(I544
I736
tp8
a(I640
I736
tp9
a(I768
I736
tp10
a(I864
I736
tp11
a(I960
I736
tp12
asS'badguys'
p13
(lp14
(I160
I224
tp15
a(I768
I256
tp16
a(I928
I576
tp17
a(I320
I544
tp18
a(I224
I512
tp19
a(I480
I288
tp20
a(I448
I32
tp21
a(I96
I224
tp22
a(I608
I544
tp23
a(I768
I480
tp24
a(I704
I320
tp25
a(I160
I352
tp26
a(I608
I96
tp27
a(I864
I96
tp28
a(I192
I480
tp29
a(I96
I576
tp30
a(I160
I128
tp31
a(I288
I128
tp32
a(I608
I544
tp33
a(I384
I448
tp34
a(I320
I288
tp35
a(I384
I288
tp36
a(I672
I448
tp37
asS'balls'
p38
(lp39
sS'walls'
p40
(lp41
sS'mainchar'
p42
(lp43
s.