(dp0
S'platforms'
p1
(lp2
(I128
I128
tp3
a(I224
I128
tp4
a(I320
I128
tp5
a(I416
I128
tp6
a(I512
I128
tp7
a(I608
I128
tp8
a(I704
I128
tp9
a(I800
I128
tp10
asS'badguys'
p11
(lp12
sS'balls'
p13
(lp14
sS'walls'
p15
(lp16
sS'mainchar'
p17
(lp18
s.