(dp0
S'solidWall'
p1
(lp2
(lp3
(I96
I704
tp4
aa(lp5
(I128
I704
tp6
aa(lp7
(I160
I704
tp8
aa(lp9
(I192
I704
tp10
aa(lp11
(I224
I704
tp12
aa(lp13
(I256
I704
tp14
aa(lp15
(I288
I704
tp16
aa(lp17
(I320
I704
tp18
aa(lp19
(I352
I704
tp20
aa(lp21
(I288
I640
tp22
aa(lp23
(I320
I640
tp24
aa(lp25
(I352
I640
tp26
aa(lp27
(I384
I640
tp28
aa(lp29
(I416
I640
tp30
aa(lp31
(I448
I640
tp32
aa(lp33
(I448
I704
tp34
aa(lp35
(I416
I704
tp36
aa(lp37
(I384
I704
tp38
aa(lp39
(I480
I608
tp40
aa(lp41
(I480
I704
tp42
aa(lp43
(I480
I640
tp44
aa(lp45
(I512
I640
tp46
aa(lp47
(I512
I704
tp48
aa(lp49
(I544
I704
tp50
aa(lp51
(I544
I640
tp52
aa(lp53
(I480
I576
tp54
aa(lp55
(I512
I576
tp56
aa(lp57
(I544
I576
tp58
aa(lp59
(I576
I576
tp60
aa(lp61
(I608
I576
tp62
aa(lp63
(I640
I576
tp64
aa(lp65
(I640
I640
tp66
aa(lp67
(I608
I640
tp68
aa(lp69
(I576
I640
tp70
aa(lp71
(I576
I704
tp72
aa(lp73
(I608
I704
tp74
aa(lp75
(I640
I704
tp76
aasS'solidPlatform'
p77
(lp78
(lp79
(I0
I736
tp80
aa(lp81
(I192
I672
tp82
aa(lp83
(I384
I608
tp84
aa(lp85
(I576
I544
tp86
aas.