(dp0
S'platforms'
p1
(lp2
(I0
I736
tp3
a(I96
I736
tp4
a(I192
I736
tp5
a(I288
I736
tp6
a(I384
I736
tp7
a(I480
I736
tp8
a(I576
I736
tp9
asS'badguys'
p10
(lp11
sS'balls'
p12
(lp13
sS'walls'
p14
(lp15
sS'mainchar'
p16
(lp17
s.