(dp0
S'platforms'
p1
(lp2
(I0
I736
tp3
a(I96
I736
tp4
a(I192
I736
tp5
a(I288
I736
tp6
a(I320
I672
tp7
a(I416
I736
tp8
a(I416
I672
tp9
a(I544
I736
tp10
a(I512
I672
tp11
a(I608
I672
tp12
a(I704
I672
tp13
a(I672
I736
tp14
a(I800
I736
tp15
a(I928
I736
tp16
asS'badguys'
p17
(lp18
sS'balls'
p19
(lp20
sS'walls'
p21
(lp22
sS'mainchar'
p23
(lp24
s.