(dp0
S'gravityBouncyBall'
p1
(lp2
(lp3
(I160
I96
tp4
aasS'bouncyBall'
p5
(lp6
(lp7
(I544
I288
tp8
aasS'badGuy'
p9
(lp10
(lp11
(I800
I288
tp12
aa(lp13
(I320
I480
tp14
aa(lp15
(I192
I416
tp16
aa(lp17
(I288
I160
tp18
aasS'solidPlatform'
p19
(lp20
(lp21
(I256
I320
tp22
aa(lp23
(I640
I608
tp24
aa(lp25
(I288
I608
tp26
aas.