(dp0
S'badGuy'
p1
(lp2
(lp3
(I672
I160
tp4
aa(lp5
(I672
I160
tp6
aa(lp7
(I672
I160
tp8
aa(lp9
(I672
I160
tp10
aa(lp11
(I672
I160
tp12
aa(lp13
(I672
I160
tp14
aa(lp15
(I672
I160
tp16
aa(lp17
(I672
I160
tp18
aa(lp19
(I672
I160
tp20
aa(lp21
(I672
I160
tp22
aa(lp23
(I672
I160
tp24
aa(lp25
(I672
I160
tp26
aa(lp27
(I672
I160
tp28
aa(lp29
(I672
I160
tp30
aa(lp31
(I672
I160
tp32
aa(lp33
(I672
I160
tp34
aa(lp35
(I672
I160
tp36
aa(lp37
(I672
I160
tp38
aa(lp39
(I672
I160
tp40
aa(lp41
(I672
I160
tp42
aa(lp43
(I672
I160
tp44
aasS'solidPlatform'
p45
(lp46
(lp47
(I480
I736
tp48
aas.