(dp0
S'badGuy'
p1
(lp2
(lp3
(I288
I128
tp4
aa(lp5
(I736
I128
tp6
aa(lp7
(I800
I352
tp8
aa(lp9
(I416
I448
tp10
aa(lp11
(I128
I320
tp12
aa(lp13
(I128
I512
tp14
aa(lp15
(I480
I608
tp16
aa(lp17
(I704
I576
tp18
aa(lp19
(I768
I512
tp20
aa(lp21
(I576
I384
tp22
aa(lp23
(I416
I192
tp24
aa(lp25
(I288
I384
tp26
aa(lp27
(I608
I192
tp28
aa(lp29
(I512
I32
tp30
aa(lp31
(I128
I96
tp32
aa(lp33
(I832
I224
tp34
aa(lp35
(I192
I640
tp36
aasS'solidPlatform'
p37
(lp38
(lp39
(I0
I736
tp40
aa(lp41
(I96
I736
tp42
aa(lp43
(I192
I736
tp44
aa(lp45
(I288
I736
tp46
aa(lp47
(I384
I736
tp48
aa(lp49
(I480
I736
tp50
aa(lp51
(I608
I736
tp52
aa(lp53
(I576
I736
tp54
aa(lp55
(I704
I736
tp56
aa(lp57
(I800
I736
tp58
aa(lp59
(I896
I736
tp60
aa(lp61
(I960
I736
tp62
aas.