(dp0
S'platforms'
p1
(lp2
(I128
I672
tp3
a(I640
I672
tp4
a(I832
I672
tp5
a(I384
I704
tp6
asS'badguys'
p7
(lp8
(I128
I160
tp9
asS'balls'
p10
(lp11
(I832
I192
tp12
asS'walls'
p13
(lp14
sS'mainchar'
p15
(lp16
s.