(dp0
S'platforms'
p1
(lp2
(I32
I224
tp3
a(I224
I224
tp4
a(I416
I224
tp5
a(I640
I224
tp6
a(I96
I704
tp7
a(I192
I704
tp8
a(I256
I704
tp9
a(I384
I704
tp10
a(I448
I672
tp11
a(I352
I704
tp12
a(I416
I512
tp13
a(I384
I512
tp14
a(I320
I512
tp15
a(I288
I512
tp16
a(I224
I512
tp17
a(I192
I512
tp18
a(I160
I512
tp19
a(I128
I512
tp20
a(I96
I512
tp21
a(I64
I512
tp22
a(I544
I672
tp23
a(I672
I672
tp24
a(I640
I672
tp25
a(I800
I672
tp26
a(I768
I672
tp27
asS'badguys'
p28
(lp29
(I608
I64
tp30
asS'balls'
p31
(lp32
(I160
I576
tp33
asS'walls'
p34
(lp35
(I96
I640
tp36
a(I96
I576
tp37
a(I96
I544
tp38
a(I96
I512
tp39
a(I448
I576
tp40
a(I448
I544
tp41
a(I448
I512
tp42
asS'mainchar'
p43
(lp44
(I224
I64
tp45
as.