(dp0
S'platforms'
p1
(lp2
sS'badguys'
p3
(lp4
sS'balls'
p5
(lp6
sS'walls'
p7
(lp8
sS'mainchar'
p9
(lp10
(I544
I32
tp11
a(I352
I192
tp12
a(I320
I64
tp13
a(I608
I96
tp14
a(I704
I480
tp15
a(I192
I448
tp16
as.