(dp0
S'platforms'
p1
(lp2
(I224
I544
tp3
a(I320
I544
tp4
a(I416
I544
tp5
a(I512
I544
tp6
a(I608
I544
tp7
a(I320
I384
tp8
a(I320
I288
tp9
asS'badguys'
p10
(lp11
sS'balls'
p12
(lp13
sS'walls'
p14
(lp15
(I320
I320
tp16
a(I352
I320
tp17
a(I384
I320
tp18
a(I608
I480
tp19
a(I640
I480
tp20
asS'mainchar'
p21
(lp22
(I480
I32
tp23
as.