(dp0
S'platforms'
p1
(lp2
(I0
I448
tp3
a(I96
I448
tp4
a(I192
I448
tp5
a(I288
I448
tp6
a(I416
I448
tp7
a(I384
I448
tp8
a(I512
I448
tp9
a(I608
I448
tp10
a(I160
I288
tp11
a(I256
I288
tp12
a(I352
I288
tp13
a(I416
I288
tp14
a(I704
I448
tp15
a(I800
I448
tp16
a(I928
I704
tp17
a(I832
I704
tp18
a(I704
I704
tp19
a(I832
I704
tp20
a(I800
I704
tp21
a(I640
I704
tp22
a(I544
I704
tp23
a(I416
I704
tp24
a(I480
I704
tp25
a(I352
I704
tp26
a(I256
I704
tp27
a(I160
I704
tp28
a(I96
I704
tp29
a(I32
I704
tp30
asS'badguys'
p31
(lp32
(I800
I64
tp33
a(I96
I512
tp34
asS'balls'
p35
(lp36
(I64
I320
tp37
a(I224
I352
tp38
asS'walls'
p39
(lp40
(I160
I320
tp41
a(I480
I320
tp42
a(I480
I352
tp43
a(I160
I352
tp44
a(I992
I288
tp45
a(I992
I352
tp46
a(I992
I416
tp47
a(I992
I512
tp48
a(I992
I480
tp49
a(I992
I576
tp50
a(I992
I640
tp51
asS'mainchar'
p52
(lp53
(I192
I64
tp54
as.