(dp0
S'platforms'
p1
(lp2
(I0
I160
tp3
a(I96
I160
tp4
a(I192
I160
tp5
a(I288
I160
tp6
a(I384
I160
tp7
a(I480
I160
tp8
a(I576
I160
tp9
a(I672
I160
tp10
a(I928
I416
tp11
a(I832
I416
tp12
a(I736
I416
tp13
a(I640
I416
tp14
a(I544
I416
tp15
a(I448
I416
tp16
a(I352
I416
tp17
a(I256
I416
tp18
a(I0
I736
tp19
a(I96
I736
tp20
a(I192
I736
tp21
a(I288
I736
tp22
a(I384
I736
tp23
a(I480
I736
tp24
a(I576
I736
tp25
a(I672
I736
tp26
a(I768
I736
tp27
a(I864
I736
tp28
a(I960
I736
tp29
asS'badguys'
p30
(lp31
(I32
I32
tp32
asS'balls'
p33
(lp34
(I736
I480
tp35
a(I896
I480
tp36
a(I896
I640
tp37
a(I736
I640
tp38
asS'walls'
p39
(lp40
(I256
I128
tp41
a(I992
I0
tp42
a(I992
I64
tp43
a(I992
I128
tp44
a(I992
I192
tp45
a(I992
I256
tp46
a(I992
I320
tp47
a(I992
I384
tp48
a(I0
I192
tp49
a(I0
I256
tp50
a(I0
I320
tp51
a(I0
I384
tp52
a(I0
I448
tp53
a(I0
I512
tp54
a(I0
I576
tp55
a(I0
I640
tp56
a(I0
I704
tp57
a(I992
I672
tp58
a(I992
I608
tp59
a(I992
I544
tp60
a(I992
I480
tp61
a(I992
I448
tp62
a(I672
I448
tp63
a(I672
I512
tp64
a(I672
I576
tp65
a(I672
I640
tp66
a(I576
I128
tp67
a(I704
I384
tp68
a(I448
I384
tp69
a(I256
I704
tp70
a(I480
I704
tp71
asS'mainchar'
p72
(lp73
(I288
I96
tp74
as.