(dp0
S'platforms'
p1
(lp2
(I448
I192
tp3
a(I352
I192
tp4
a(I256
I192
tp5
a(I544
I512
tp6
a(I640
I512
tp7
a(I672
I352
tp8
a(I448
I512
tp9
a(I352
I512
tp10
a(I256
I512
tp11
a(I160
I512
tp12
a(I64
I512
tp13
a(I32
I608
tp14
a(I128
I608
tp15
a(I224
I608
tp16
a(I320
I608
tp17
a(I384
I608
tp18
a(I480
I672
tp19
a(I576
I672
tp20
a(I672
I672
tp21
a(I768
I672
tp22
a(I864
I672
tp23
a(I896
I672
tp24
a(I736
I512
tp25
a(I864
I512
tp26
a(I832
I512
tp27
a(I896
I512
tp28
asS'badguys'
p29
(lp30
(I832
I576
tp31
asS'balls'
p32
(lp33
(I480
I320
tp34
a(I672
I576
tp35
asS'walls'
p36
(lp37
(I256
I224
tp38
a(I256
I288
tp39
a(I256
I352
tp40
a(I256
I416
tp41
a(I544
I192
tp42
a(I544
I256
tp43
a(I544
I320
tp44
a(I544
I384
tp45
a(I544
I544
tp46
a(I544
I448
tp47
a(I256
I448
tp48
a(I160
I416
tp49
a(I128
I416
tp50
a(I0
I448
tp51
a(I0
I512
tp52
a(I0
I576
tp53
a(I960
I544
tp54
a(I960
I608
tp55
asS'mainchar'
p56
(lp57
(I480
I96
tp58
as.