(dp0
S'badGuy'
p1
S"badguy1.png'"
p2
sS'bounceBall'
p3
S"ball1.png'"
p4
sS'gravityBouncyBall'
p5
S"ball1.png'"
p6
sS'bouncyBall'
p7
S"ball1.png'"
p8
sS'solidWall'
p9
S"wall.png'"
p10
sS'MainChar'
p11
S"char2.png'"
p12
sS'solidPlatform'
p13
S"solid.png'"
p14
s.